(lp1
(V_image
S'folder'
p2
tp3
a(Vtemplate
g2
tp4
a(V_image/2013-07-04
g2
tp5
a(V_image/2013-07-04/tubiao_03.png
p6
S'b57bbe3cb33faae9a6b47499714cb43a0c3fdfcf'
p7
tp8
a(Vtemplate/base.html
S'dc91290262474bb90942dc161218d509290670ce'
p9
tp10
a(Vtemplate/configs.html
S'c8975fa51fb91b72aa6ca76ae7122762a6c73b1d'
p11
tp12
a(Vtemplate/index.html
S'c2edb1dfaf70f7f05f15b2a626f5abc15fc48171'
p13
tp14
a(Vtemplate/post.html
S'ca1129fc05e69a0cd79e4b905837de229aadd5b1'
p15
tp16
a(Vtemplate/css
g2
tp17
a(Vtemplate/include
g2
tp18
a(Vtemplate/css/layout.css
S'25e621714d695b04473e147460f511a956ee3c0f'
p19
tp20
a(Vtemplate/css/image
g2
tp21
a(Vtemplate/css/image/bg.png
S'dcdb684859192bef40f40dccf66c47aaba22c7fd'
p22
tp23
a(Vtemplate/css/image/page_bg.jpg
S'31feaed5a80ae4350d2308b2677641fe25100a65'
p24
tp25
a(Vtemplate/include/posts_list.html
S'edec5c8859b68bfabe6bb1915c483df5d7a7ff43'
p26
tp27
a.